target datalayout = "e-m:e-p270:32:32-p271:32:32-p272:64:64-i64:64-i128:128-f80:128-n8:16:32:64-S128"
target triple = "x86_64-pc-linux-gnu"

@.str.236 = private unnamed_addr constant [22 x i8] c"_5_summaryinformation\00", align 1
@.str.237 = private unnamed_addr constant [93 x i8] c"cli_ole2_tempdir_scan_summary: uniq_get('_5_summaryinformation') failed with ret code (%d)!\0A\00", align 1
@.str.238 = private unnamed_addr constant [9 x i8] c"%s/%s_%u\00", align 1
@.str.239 = private unnamed_addr constant [74 x i8] c"cli_ole2_tempdir_scan_summary: detected a '_5_summaryinformation' stream\0A\00", align 1
@.str.240 = private unnamed_addr constant [30 x i8] c"_5_documentsummaryinformation\00", align 1
@.str.241 = private unnamed_addr constant [101 x i8] c"cli_ole2_tempdir_scan_summary: uniq_get('_5_documentsummaryinformation') failed with ret code (%d)!\0A\00", align 1
@.str.242 = private unnamed_addr constant [82 x i8] c"cli_ole2_tempdir_scan_summary: detected a '_5_documentsummaryinformation' stream\0A\00", align 1

; Function Attrs: nounwind uwtable
define internal i32 @cli_ole2_tempdir_scan_summary(ptr noundef %0, ptr noundef %1, ptr noundef %2) #0 {
  %4 = alloca ptr, align 8
  %5 = alloca ptr, align 8
  %6 = alloca ptr, align 8
  %7 = alloca i32, align 4
  %8 = alloca i32, align 4
  %9 = alloca [1024 x i8], align 16
  %10 = alloca ptr, align 8
  %11 = alloca i32, align 4
  %12 = alloca i32, align 4
  %13 = alloca i32, align 4
  store ptr %0, ptr %4, align 8
  store ptr %1, ptr %5, align 8
  store ptr %2, ptr %6, align 8
  store i32 0, ptr %7, align 4
  store i32 0, ptr %11, align 4
  %14 = load ptr, ptr %6, align 8
  %15 = call i32 @uniq_get(ptr noundef %14, ptr noundef @.str.236, i32 noundef 21, ptr noundef %10, ptr noundef %11)
  store i32 %15, ptr %8, align 4
  %16 = icmp ne i32 0, %15
  br i1 %16, label %17, label %20

17:                                               ; preds = %3
  %18 = load i32, ptr %8, align 4
  call void (ptr, ...) @cli_dbgmsg(ptr noundef @.str.237, i32 noundef %18)
  %19 = load i32, ptr %8, align 4
  store i32 %19, ptr %7, align 4
  br label %76

20:                                               ; preds = %3
  br label %21

21:                                               ; preds = %41, %20
  %22 = load i32, ptr %11, align 4
  %23 = icmp ne i32 %22, 0
  br i1 %23, label %24, label %44

24:                                               ; preds = %21
  store i32 -1, ptr %12, align 4
  %25 = getelementptr inbounds [1024 x i8], ptr %9, i64 0, i64 0
  %26 = load ptr, ptr %4, align 8
  %27 = load ptr, ptr %10, align 8
  %28 = load i32, ptr %11, align 4
  %29 = call i32 (ptr, i64, ptr, ...) @snprintf(ptr noundef %25, i64 noundef 1024, ptr noundef @.str.238, ptr noundef %26, ptr noundef %27, i32 noundef %28) #11
  %30 = getelementptr inbounds [1024 x i8], ptr %9, i64 0, i64 1023
  store i8 0, ptr %30, align 1
  %31 = getelementptr inbounds [1024 x i8], ptr %9, i64 0, i64 0
  %32 = call i32 (ptr, i32, ...) @open(ptr noundef %31, i32 noundef 0)
  store i32 %32, ptr %12, align 4
  %33 = load i32, ptr %12, align 4
  %34 = icmp sge i32 %33, 0
  br i1 %34, label %35, label %41

35:                                               ; preds = %24
  call void (ptr, ...) @cli_dbgmsg(ptr noundef @.str.239)
  %36 = load ptr, ptr %5, align 8
  %37 = load i32, ptr %12, align 4
  %38 = call i32 @cli_ole2_summary_json(ptr noundef %36, i32 noundef %37, i32 noundef 0)
  %39 = load i32, ptr %12, align 4
  %40 = call i32 @close(i32 noundef %39)
  br label %41

41:                                               ; preds = %35, %24
  %42 = load i32, ptr %11, align 4
  %43 = add i32 %42, -1
  store i32 %43, ptr %11, align 4
  br label %21

44:                                               ; preds = %21
  %45 = load ptr, ptr %6, align 8
  %46 = call i32 @uniq_get(ptr noundef %45, ptr noundef @.str.240, i32 noundef 29, ptr noundef %10, ptr noundef %11)
  store i32 %46, ptr %8, align 4
  %47 = icmp ne i32 0, %46
  br i1 %47, label %48, label %51

48:                                               ; preds = %44
  %49 = load i32, ptr %8, align 4
  call void (ptr, ...) @cli_dbgmsg(ptr noundef @.str.241, i32 noundef %49)
  %50 = load i32, ptr %8, align 4
  store i32 %50, ptr %7, align 4
  br label %76

51:                                               ; preds = %44
  br label %52

52:                                               ; preds = %72, %51
  %53 = load i32, ptr %11, align 4
  %54 = icmp ne i32 %53, 0
  br i1 %54, label %55, label %75

55:                                               ; preds = %52
  store i32 -1, ptr %13, align 4
  %56 = getelementptr inbounds [1024 x i8], ptr %9, i64 0, i64 0
  %57 = load ptr, ptr %4, align 8
  %58 = load ptr, ptr %10, align 8
  %59 = load i32, ptr %11, align 4
  %60 = call i32 (ptr, i64, ptr, ...) @snprintf(ptr noundef %56, i64 noundef 1024, ptr noundef @.str.238, ptr noundef %57, ptr noundef %58, i32 noundef %59) #11
  %61 = getelementptr inbounds [1024 x i8], ptr %9, i64 0, i64 1023
  store i8 0, ptr %61, align 1
  %62 = getelementptr inbounds [1024 x i8], ptr %9, i64 0, i64 0
  %63 = call i32 (ptr, i32, ...) @open(ptr noundef %62, i32 noundef 0)
  store i32 %63, ptr %13, align 4
  %64 = load i32, ptr %13, align 4
  %65 = icmp sge i32 %64, 0
  br i1 %65, label %66, label %72

66:                                               ; preds = %55
  call void (ptr, ...) @cli_dbgmsg(ptr noundef @.str.242)
  %67 = load ptr, ptr %5, align 8
  %68 = load i32, ptr %13, align 4
  %69 = call i32 @cli_ole2_summary_json(ptr noundef %67, i32 noundef %68, i32 noundef 1)
  %70 = load i32, ptr %13, align 4
  %71 = call i32 @close(i32 noundef %70)
  br label %72

72:                                               ; preds = %66, %55
  %73 = load i32, ptr %11, align 4
  %74 = add i32 %73, -1
  store i32 %74, ptr %11, align 4
  br label %52

75:                                               ; preds = %52
  br label %76

76:                                               ; preds = %75, %48, %17
  %77 = load i32, ptr %7, align 4
  ret i32 %77
}