; Function Attrs: nounwind uwtable
define internal fastcc void @cli_ole2_tempdir_scan_summary(ptr noundef nonnull %0, ptr noundef %1, ptr noundef nonnull %2) unnamed_addr #0 {
  %4 = alloca [1024 x i8], align 16
  %5 = alloca ptr, align 8
  %6 = alloca i32, align 4
  store i32 0, ptr %6, align 4
  %7 = call i32 @uniq_get(ptr noundef nonnull %2, ptr noundef nonnull @.str.236, i32 noundef 21, ptr noundef nonnull %5, ptr noundef nonnull %6) #16
  %.not = icmp eq i32 %7, 0
  br i1 %.not, label %thread-pre-split, label %8

8:                                                ; preds = %3
  call void (ptr, ...) @cli_dbgmsg(ptr noundef nonnull @.str.237, i32 noundef %7) #16
  br label %.loopexit

thread-pre-split:                                 ; preds = %3
  %.pr = load i32, ptr %6, align 4
  %.not2227 = icmp eq i32 %.pr, 0
  br i1 %.not2227, label %._crit_edge, label %.lr.ph

.lr.ph:                                           ; preds = %thread-pre-split
  %9 = getelementptr inbounds nuw i8, ptr %4, i64 1023
  br label %10

10:                                               ; preds = %.lr.ph, %19
  %11 = phi i32 [ %.pr, %.lr.ph ], [ %21, %19 ]
  %12 = load ptr, ptr %5, align 8
  %13 = call i32 (ptr, i64, ptr, ...) @snprintf(ptr noundef nonnull dereferenceable(1) %4, i64 noundef 1024, ptr noundef nonnull @.str.238, ptr noundef nonnull %0, ptr noundef %12, i32 noundef %11) #16
  store i8 0, ptr %9, align 1
  %14 = call i32 (ptr, i32, ...) @open(ptr noundef nonnull %4, i32 noundef 0) #16
  %15 = icmp sgt i32 %14, -1
  br i1 %15, label %16, label %19

16:                                               ; preds = %10
  call void (ptr, ...) @cli_dbgmsg(ptr noundef nonnull @.str.239) #16
  %17 = call i32 @cli_ole2_summary_json(ptr noundef %1, i32 noundef %14, i32 noundef 0) #16
  %18 = call i32 @close(i32 noundef %14) #16
  br label %19

19:                                               ; preds = %16, %10
  %20 = load i32, ptr %6, align 4
  %21 = add i32 %20, -1
  store i32 %21, ptr %6, align 4
  %.not22 = icmp eq i32 %21, 0
  br i1 %.not22, label %._crit_edge, label %10

._crit_edge:                                      ; preds = %19, %thread-pre-split
  %22 = call i32 @uniq_get(ptr noundef nonnull %2, ptr noundef nonnull @.str.240, i32 noundef 29, ptr noundef nonnull %5, ptr noundef nonnull %6) #16
  %.not23 = icmp eq i32 %22, 0
  br i1 %.not23, label %thread-pre-split25, label %23

23:                                               ; preds = %._crit_edge
  call void (ptr, ...) @cli_dbgmsg(ptr noundef nonnull @.str.241, i32 noundef %22) #16
  br label %.loopexit

thread-pre-split25:                               ; preds = %._crit_edge
  %.pr26 = load i32, ptr %6, align 4
  %.not2428 = icmp eq i32 %.pr26, 0
  br i1 %.not2428, label %.loopexit, label %.lr.ph29

.lr.ph29:                                         ; preds = %thread-pre-split25
  %24 = getelementptr inbounds nuw i8, ptr %4, i64 1023
  br label %25

25:                                               ; preds = %.lr.ph29, %34
  %26 = phi i32 [ %.pr26, %.lr.ph29 ], [ %36, %34 ]
  %27 = load ptr, ptr %5, align 8
  %28 = call i32 (ptr, i64, ptr, ...) @snprintf(ptr noundef nonnull dereferenceable(1) %4, i64 noundef 1024, ptr noundef nonnull @.str.238, ptr noundef nonnull %0, ptr noundef %27, i32 noundef %26) #16
  store i8 0, ptr %24, align 1
  %29 = call i32 (ptr, i32, ...) @open(ptr noundef nonnull %4, i32 noundef 0) #16
  %30 = icmp sgt i32 %29, -1
  br i1 %30, label %31, label %34

31:                                               ; preds = %25
  call void (ptr, ...) @cli_dbgmsg(ptr noundef nonnull @.str.242) #16
  %32 = call i32 @cli_ole2_summary_json(ptr noundef %1, i32 noundef %29, i32 noundef 1) #16
  %33 = call i32 @close(i32 noundef %29) #16
  br label %34

34:                                               ; preds = %31, %25
  %35 = load i32, ptr %6, align 4
  %36 = add i32 %35, -1
  store i32 %36, ptr %6, align 4
  %.not24 = icmp eq i32 %36, 0
  br i1 %.not24, label %.loopexit, label %25

.loopexit:                                        ; preds = %34, %thread-pre-split25, %23, %8
  ret void
}